target datalayout = "e-m:e-p270:32:32-p271:32:32-p272:64:64-i64:64-i128:128-f80:128-n8:16:32:64-S128"
target triple = "x86_64-pc-linux-gnu"

@.str.7 = private unnamed_addr constant [20 x i8] c"ICU error: %s(): %s\00", align 1
@.str.8 = private unnamed_addr constant [12 x i8] c"uregex_open\00", align 1
@.str.9 = private unnamed_addr constant [15 x i8] c"uregex_setText\00", align 1
@.str.10 = private unnamed_addr constant [15 x i8] c"uregex_matches\00", align 1

; Function Attrs: nounwind uwtable
define internal void @icuFunctionError(ptr noundef %0, ptr noundef %1, i32 noundef %2) #0 {
  %4 = alloca ptr, align 8
  %5 = alloca ptr, align 8
  %6 = alloca i32, align 4
  %7 = alloca [128 x i8], align 16
  store ptr %0, ptr %4, align 8, !tbaa !22
  store ptr %1, ptr %5, align 8, !tbaa !28
  store i32 %2, ptr %6, align 4, !tbaa !11
  call void @llvm.lifetime.start.p0(i64 128, ptr %7) #3
  %8 = getelementptr inbounds [128 x i8], ptr %7, i64 0, i64 0
  %9 = load ptr, ptr %5, align 8, !tbaa !28
  %10 = load i32, ptr %6, align 4, !tbaa !11
  %11 = call ptr @u_errorName_70(i32 noundef %10)
  %12 = call ptr (i32, ptr, ptr, ...) @sqlite3_snprintf(i32 noundef 128, ptr noundef %8, ptr noundef @.str.7, ptr noundef %9, ptr noundef %11)
  %13 = getelementptr inbounds [128 x i8], ptr %7, i64 0, i64 127
  store i8 0, ptr %13, align 1, !tbaa !35
  %14 = load ptr, ptr %4, align 8, !tbaa !22
  %15 = getelementptr inbounds [128 x i8], ptr %7, i64 0, i64 0
  call void @sqlite3_result_error(ptr noundef %14, ptr noundef %15, i32 noundef -1)
  call void @llvm.lifetime.end.p0(i64 128, ptr %7) #3
  ret void
}

; Function Attrs: nounwind uwtable
define internal void @icuRegexpFunc(ptr noundef %0, i32 noundef %1, ptr noundef %2) #0 {
  %4 = alloca ptr, align 8
  %5 = alloca i32, align 4
  %6 = alloca ptr, align 8
  %7 = alloca i32, align 4
  %8 = alloca ptr, align 8
  %9 = alloca i8, align 1
  %10 = alloca ptr, align 8
  %11 = alloca i32, align 4
  %12 = alloca ptr, align 8
  store ptr %0, ptr %4, align 8, !tbaa !22
  store i32 %1, ptr %5, align 4, !tbaa !11
  store ptr %2, ptr %6, align 8, !tbaa !24
  call void @llvm.lifetime.start.p0(i64 4, ptr %7) #3
  store i32 0, ptr %7, align 4, !tbaa !11
  call void @llvm.lifetime.start.p0(i64 8, ptr %8) #3
  call void @llvm.lifetime.start.p0(i64 1, ptr %9) #3
  call void @llvm.lifetime.start.p0(i64 8, ptr %10) #3
  %13 = load ptr, ptr %6, align 8, !tbaa !24
  %14 = getelementptr inbounds ptr, ptr %13, i64 1
  %15 = load ptr, ptr %14, align 8, !tbaa !26
  %16 = call ptr @sqlite3_value_text16(ptr noundef %15)
  store ptr %16, ptr %10, align 8, !tbaa !31
  %17 = load ptr, ptr %10, align 8, !tbaa !31
  %18 = icmp ne ptr %17, null
  br i1 %18, label %20, label %19

19:                                               ; preds = %3
  store i32 1, ptr %11, align 4
  br label %71

20:                                               ; preds = %3
  %21 = load ptr, ptr %4, align 8, !tbaa !22
  %22 = call ptr @sqlite3_get_auxdata(ptr noundef %21, i32 noundef 0)
  store ptr %22, ptr %8, align 8, !tbaa !33
  %23 = load ptr, ptr %8, align 8, !tbaa !33
  %24 = icmp ne ptr %23, null
  br i1 %24, label %48, label %25

25:                                               ; preds = %20
  call void @llvm.lifetime.start.p0(i64 8, ptr %12) #3
  %26 = load ptr, ptr %6, align 8, !tbaa !24
  %27 = getelementptr inbounds ptr, ptr %26, i64 0
  %28 = load ptr, ptr %27, align 8, !tbaa !26
  %29 = call ptr @sqlite3_value_text16(ptr noundef %28)
  store ptr %29, ptr %12, align 8, !tbaa !31
  %30 = load ptr, ptr %12, align 8, !tbaa !31
  %31 = icmp ne ptr %30, null
  br i1 %31, label %33, label %32

32:                                               ; preds = %25
  store i32 1, ptr %11, align 4
  br label %45

33:                                               ; preds = %25
  %34 = load ptr, ptr %12, align 8, !tbaa !31
  %35 = call ptr @uregex_open_70(ptr noundef %34, i32 noundef -1, i32 noundef 0, ptr noundef null, ptr noundef %7)
  store ptr %35, ptr %8, align 8, !tbaa !33
  %36 = load i32, ptr %7, align 4, !tbaa !11
  %37 = icmp sle i32 %36, 0
  br i1 %37, label %38, label %41

38:                                               ; preds = %33
  %39 = load ptr, ptr %4, align 8, !tbaa !22
  %40 = load ptr, ptr %8, align 8, !tbaa !33
  call void @sqlite3_set_auxdata(ptr noundef %39, i32 noundef 0, ptr noundef %40, ptr noundef @icuRegexpDelete)
  br label %44

41:                                               ; preds = %33
  %42 = load ptr, ptr %4, align 8, !tbaa !22
  %43 = load i32, ptr %7, align 4, !tbaa !11
  call void @icuFunctionError(ptr noundef %42, ptr noundef @.str.8, i32 noundef %43)
  store i32 1, ptr %11, align 4
  br label %45

44:                                               ; preds = %38
  store i32 0, ptr %11, align 4
  br label %45

45:                                               ; preds = %44, %41, %32
  call void @llvm.lifetime.end.p0(i64 8, ptr %12) #3
  %46 = load i32, ptr %11, align 4
  switch i32 %46, label %71 [
    i32 0, label %47
  ]

47:                                               ; preds = %45
  br label %48

48:                                               ; preds = %47, %20
  %49 = load ptr, ptr %8, align 8, !tbaa !33
  %50 = load ptr, ptr %10, align 8, !tbaa !31
  call void @uregex_setText_70(ptr noundef %49, ptr noundef %50, i32 noundef -1, ptr noundef %7)
  %51 = load i32, ptr %7, align 4, !tbaa !11
  %52 = icmp sle i32 %51, 0
  br i1 %52, label %56, label %53

53:                                               ; preds = %48
  %54 = load ptr, ptr %4, align 8, !tbaa !22
  %55 = load i32, ptr %7, align 4, !tbaa !11
  call void @icuFunctionError(ptr noundef %54, ptr noundef @.str.9, i32 noundef %55)
  store i32 1, ptr %11, align 4
  br label %71

56:                                               ; preds = %48
  %57 = load ptr, ptr %8, align 8, !tbaa !33
  %58 = call signext i8 @uregex_matches_70(ptr noundef %57, i32 noundef 0, ptr noundef %7)
  store i8 %58, ptr %9, align 1, !tbaa !35
  %59 = load i32, ptr %7, align 4, !tbaa !11
  %60 = icmp sle i32 %59, 0
  br i1 %60, label %64, label %61

61:                                               ; preds = %56
  %62 = load ptr, ptr %4, align 8, !tbaa !22
  %63 = load i32, ptr %7, align 4, !tbaa !11
  call void @icuFunctionError(ptr noundef %62, ptr noundef @.str.10, i32 noundef %63)
  store i32 1, ptr %11, align 4
  br label %71

64:                                               ; preds = %56
  %65 = load ptr, ptr %8, align 8, !tbaa !33
  call void @uregex_setText_70(ptr noundef %65, ptr noundef null, i32 noundef 0, ptr noundef %7)
  %66 = load ptr, ptr %4, align 8, !tbaa !22
  %67 = load i8, ptr %9, align 1, !tbaa !35
  %68 = sext i8 %67 to i32
  %69 = icmp ne i32 %68, 0
  %70 = select i1 %69, i32 1, i32 0
  call void @sqlite3_result_int(ptr noundef %66, i32 noundef %70)
  store i32 0, ptr %11, align 4
  br label %71

71:                                               ; preds = %64, %61, %53, %45, %19
  call void @llvm.lifetime.end.p0(i64 8, ptr %10) #3
  call void @llvm.lifetime.end.p0(i64 1, ptr %9) #3
  call void @llvm.lifetime.end.p0(i64 8, ptr %8) #3
  call void @llvm.lifetime.end.p0(i64 4, ptr %7) #3
  %72 = load i32, ptr %11, align 4
  switch i32 %72, label %74 [
    i32 0, label %73
    i32 1, label %73
  ]

73:                                               ; preds = %71, %71
  ret void

74:                                               ; preds = %71
  unreachable
}