; Function Attrs: nounwind uwtable
define internal void @icuRegexpFunc(ptr noundef %0, i32 %1, ptr noundef readonly captures(none) %2) #0 {
  %4 = alloca [128 x i8], align 16
  %5 = alloca [128 x i8], align 16
  %6 = alloca [128 x i8], align 16
  %7 = alloca i32, align 4
  call void @llvm.lifetime.start.p0(i64 4, ptr nonnull %7) #3
  store i32 0, ptr %7, align 4, !tbaa !17
  %8 = getelementptr inbounds nuw i8, ptr %2, i64 8
  %9 = load ptr, ptr %8, align 8, !tbaa !18
  %10 = tail call ptr @sqlite3_value_text16(ptr noundef %9) #3
  %.not = icmp eq ptr %10, null
  br i1 %.not, label %.thread, label %11

11:                                               ; preds = %3
  %12 = tail call ptr @sqlite3_get_auxdata(ptr noundef %0, i32 noundef 0) #3
  %.not26 = icmp eq ptr %12, null
  br i1 %.not26, label %13, label %25

13:                                               ; preds = %11
  %14 = load ptr, ptr %2, align 8, !tbaa !18
  %15 = tail call ptr @sqlite3_value_text16(ptr noundef %14) #3
  %.not27 = icmp eq ptr %15, null
  br i1 %.not27, label %.thread, label %16

16:                                               ; preds = %13
  %17 = call ptr @uregex_open_70(ptr noundef nonnull %15, i32 noundef -1, i32 noundef 0, ptr noundef null, ptr noundef nonnull %7) #3
  %18 = load i32, ptr %7, align 4, !tbaa !17
  %19 = icmp slt i32 %18, 1
  br i1 %19, label %24, label %20

20:                                               ; preds = %16
  call void @llvm.lifetime.start.p0(i64 128, ptr nonnull %6) #3
  %21 = call ptr @u_errorName_70(i32 noundef range(i32 1, -2147483648) %18) #3
  %22 = call ptr (i32, ptr, ptr, ...) @sqlite3_snprintf(i32 noundef 128, ptr noundef nonnull %6, ptr noundef nonnull @.str.7, ptr noundef nonnull @.str.8, ptr noundef %21) #3
  %23 = getelementptr inbounds nuw i8, ptr %6, i64 127
  store i8 0, ptr %23, align 1, !tbaa !20
  call void @sqlite3_result_error(ptr noundef %0, ptr noundef nonnull %6, i32 noundef -1) #3
  call void @llvm.lifetime.end.p0(i64 128, ptr nonnull %6) #3
  br label %.thread

24:                                               ; preds = %16
  call void @sqlite3_set_auxdata(ptr noundef %0, i32 noundef 0, ptr noundef %17, ptr noundef nonnull @icuRegexpDelete) #3
  br label %25

25:                                               ; preds = %24, %11
  %.0 = phi ptr [ %12, %11 ], [ %17, %24 ]
  call void @uregex_setText_70(ptr noundef %.0, ptr noundef nonnull %10, i32 noundef -1, ptr noundef nonnull %7) #3
  %26 = load i32, ptr %7, align 4, !tbaa !17
  %27 = icmp slt i32 %26, 1
  br i1 %27, label %32, label %28

28:                                               ; preds = %25
  call void @llvm.lifetime.start.p0(i64 128, ptr nonnull %5) #3
  %29 = call ptr @u_errorName_70(i32 noundef range(i32 1, -2147483648) %26) #3
  %30 = call ptr (i32, ptr, ptr, ...) @sqlite3_snprintf(i32 noundef 128, ptr noundef nonnull %5, ptr noundef nonnull @.str.7, ptr noundef nonnull @.str.9, ptr noundef %29) #3
  %31 = getelementptr inbounds nuw i8, ptr %5, i64 127
  store i8 0, ptr %31, align 1, !tbaa !20
  call void @sqlite3_result_error(ptr noundef %0, ptr noundef nonnull %5, i32 noundef -1) #3
  call void @llvm.lifetime.end.p0(i64 128, ptr nonnull %5) #3
  br label %.thread

32:                                               ; preds = %25
  %33 = call signext i8 @uregex_matches_70(ptr noundef %.0, i32 noundef 0, ptr noundef nonnull %7) #3
  %34 = load i32, ptr %7, align 4, !tbaa !17
  %35 = icmp slt i32 %34, 1
  br i1 %35, label %40, label %36

36:                                               ; preds = %32
  call void @llvm.lifetime.start.p0(i64 128, ptr nonnull %4) #3
  %37 = call ptr @u_errorName_70(i32 noundef range(i32 1, -2147483648) %34) #3
  %38 = call ptr (i32, ptr, ptr, ...) @sqlite3_snprintf(i32 noundef 128, ptr noundef nonnull %4, ptr noundef nonnull @.str.7, ptr noundef nonnull @.str.10, ptr noundef %37) #3
  %39 = getelementptr inbounds nuw i8, ptr %4, i64 127
  store i8 0, ptr %39, align 1, !tbaa !20
  call void @sqlite3_result_error(ptr noundef %0, ptr noundef nonnull %4, i32 noundef -1) #3
  call void @llvm.lifetime.end.p0(i64 128, ptr nonnull %4) #3
  br label %.thread

40:                                               ; preds = %32
  call void @uregex_setText_70(ptr noundef %.0, ptr noundef null, i32 noundef 0, ptr noundef nonnull %7) #3
  %.not28 = icmp ne i8 %33, 0
  %41 = zext i1 %.not28 to i32
  call void @sqlite3_result_int(ptr noundef %0, i32 noundef %41) #3
  br label %.thread

.thread:                                          ; preds = %13, %20, %3, %40, %36, %28
  call void @llvm.lifetime.end.p0(i64 4, ptr nonnull %7) #3
  ret void
}